target datalayout = "e-m:e-p270:32:32-p271:32:32-p272:64:64-i64:64-i128:128-f80:128-n8:16:32:64-S128"
target triple = "x86_64-pc-linux-gnu"

%struct.pref_module = type { ptr, ptr, ptr, ptr, ptr, ptr, ptr, ptr, i32, i32, i8, i8, i32 }

@prefs_modules = internal global ptr null, align 8
@prefs_top_level_modules = internal global ptr null, align 8
@.str = private unnamed_addr constant [5 x i8] c"Epan\00", align 1
@.str.1 = private unnamed_addr constant [13 x i8] c"epan/prefs.c\00", align 1
@__func__.prefs_register_module_or_subtree = private unnamed_addr constant [33 x i8] c"prefs_register_module_or_subtree\00", align 1
@.str.92 = private unnamed_addr constant [51 x i8] c"Preference module \22%s\22 contains invalid characters\00", align 1
@.str.93 = private unnamed_addr constant [49 x i8] c"Preference module \22%s\22 is being registered twice\00", align 1
@.str.94 = private unnamed_addr constant [69 x i8] c"Preferences module with no name is being registered at the top level\00", align 1

; Function Attrs: null_pointer_is_valid sspstrong uwtable
define ptr @prefs_find_module(ptr noundef %0) #1 {
  %2 = alloca ptr, align 8
  store ptr %0, ptr %2, align 8
  %3 = load ptr, ptr @prefs_modules, align 8
  %4 = load ptr, ptr %2, align 8
  %5 = call ptr @wmem_tree_lookup_string(ptr noundef %3, ptr noundef %4, i32 noundef 1)
  ret ptr %5
}

; Function Attrs: null_pointer_is_valid sspstrong uwtable
define internal ptr @find_subtree(ptr noundef %0, ptr noundef %1) #1 {
  %3 = alloca ptr, align 8
  %4 = alloca ptr, align 8
  store ptr %0, ptr %3, align 8
  store ptr %1, ptr %4, align 8
  %5 = load ptr, ptr %3, align 8
  %6 = icmp ne ptr %5, null
  br i1 %6, label %7, label %11

7:                                                ; preds = %2
  %8 = load ptr, ptr %3, align 8
  %9 = getelementptr inbounds nuw %struct.pref_module, ptr %8, i32 0, i32 7
  %10 = load ptr, ptr %9, align 8
  br label %13

11:                                               ; preds = %2
  %12 = load ptr, ptr @prefs_top_level_modules, align 8
  br label %13

13:                                               ; preds = %11, %7
  %14 = phi ptr [ %10, %7 ], [ %12, %11 ]
  %15 = load ptr, ptr %4, align 8
  %16 = call ptr @wmem_tree_lookup_string(ptr noundef %14, ptr noundef %15, i32 noundef 1)
  ret ptr %16
}

; Function Attrs: null_pointer_is_valid sspstrong uwtable
define internal ptr @prefs_register_module_or_subtree(ptr noundef %0, ptr noundef %1, ptr noundef %2, ptr noundef %3, ptr noundef %4, i1 noundef zeroext %5, ptr noundef %6, i1 noundef zeroext %7) #1 {
  %9 = alloca ptr, align 8
  %10 = alloca ptr, align 8
  %11 = alloca ptr, align 8
  %12 = alloca ptr, align 8
  %13 = alloca ptr, align 8
  %14 = alloca ptr, align 8
  %15 = alloca i8, align 1
  %16 = alloca ptr, align 8
  %17 = alloca i8, align 1
  %18 = alloca ptr, align 8
  %19 = alloca i32, align 4
  store ptr %0, ptr %10, align 8
  store ptr %1, ptr %11, align 8
  store ptr %2, ptr %12, align 8
  store ptr %3, ptr %13, align 8
  store ptr %4, ptr %14, align 8
  %20 = zext i1 %5 to i8
  store i8 %20, ptr %15, align 1
  store ptr %6, ptr %16, align 8
  %21 = zext i1 %7 to i8
  store i8 %21, ptr %17, align 1
  call void @llvm.lifetime.start.p0(i64 8, ptr %18) #17
  %22 = load ptr, ptr %10, align 8
  %23 = load ptr, ptr %12, align 8
  %24 = call ptr @find_subtree(ptr noundef %22, ptr noundef %23)
  store ptr %24, ptr %18, align 8
  %25 = icmp ne ptr %24, null
  br i1 %25, label %26, label %48

26:                                               ; preds = %8
  %27 = load ptr, ptr %11, align 8
  %28 = load ptr, ptr %18, align 8
  %29 = getelementptr inbounds nuw %struct.pref_module, ptr %28, i32 0, i32 0
  store ptr %27, ptr %29, align 8
  %30 = load ptr, ptr %16, align 8
  %31 = load ptr, ptr %18, align 8
  %32 = getelementptr inbounds nuw %struct.pref_module, ptr %31, i32 0, i32 4
  store ptr %30, ptr %32, align 8
  %33 = load ptr, ptr %13, align 8
  %34 = load ptr, ptr %18, align 8
  %35 = getelementptr inbounds nuw %struct.pref_module, ptr %34, i32 0, i32 2
  store ptr %33, ptr %35, align 8
  %36 = load ptr, ptr %14, align 8
  %37 = load ptr, ptr %18, align 8
  %38 = getelementptr inbounds nuw %struct.pref_module, ptr %37, i32 0, i32 3
  store ptr %36, ptr %38, align 8
  %39 = load ptr, ptr %11, align 8
  %40 = call ptr @prefs_find_module(ptr noundef %39)
  %41 = icmp eq ptr %40, null
  br i1 %41, label %42, label %46

42:                                               ; preds = %26
  %43 = load ptr, ptr @prefs_modules, align 8
  %44 = load ptr, ptr %11, align 8
  %45 = load ptr, ptr %18, align 8
  call void @wmem_tree_insert_string(ptr noundef %43, ptr noundef %44, ptr noundef %45, i32 noundef 1)
  br label %46

46:                                               ; preds = %42, %26
  %47 = load ptr, ptr %18, align 8
  store ptr %47, ptr %9, align 8
  store i32 1, ptr %19, align 4
  br label %135

48:                                               ; preds = %8
  %49 = call ptr @wmem_epan_scope()
  %50 = call noalias ptr @wmem_alloc(ptr noundef %49, i64 noundef 80) #19
  store ptr %50, ptr %18, align 8
  %51 = load ptr, ptr %11, align 8
  %52 = load ptr, ptr %18, align 8
  %53 = getelementptr inbounds nuw %struct.pref_module, ptr %52, i32 0, i32 0
  store ptr %51, ptr %53, align 8
  %54 = load ptr, ptr %12, align 8
  %55 = load ptr, ptr %18, align 8
  %56 = getelementptr inbounds nuw %struct.pref_module, ptr %55, i32 0, i32 1
  store ptr %54, ptr %56, align 8
  %57 = load ptr, ptr %13, align 8
  %58 = load ptr, ptr %18, align 8
  %59 = getelementptr inbounds nuw %struct.pref_module, ptr %58, i32 0, i32 2
  store ptr %57, ptr %59, align 8
  %60 = load ptr, ptr %14, align 8
  %61 = load ptr, ptr %18, align 8
  %62 = getelementptr inbounds nuw %struct.pref_module, ptr %61, i32 0, i32 3
  store ptr %60, ptr %62, align 8
  %63 = load ptr, ptr %16, align 8
  %64 = load ptr, ptr %18, align 8
  %65 = getelementptr inbounds nuw %struct.pref_module, ptr %64, i32 0, i32 4
  store ptr %63, ptr %65, align 8
  %66 = load ptr, ptr %18, align 8
  %67 = getelementptr inbounds nuw %struct.pref_module, ptr %66, i32 0, i32 5
  store ptr null, ptr %67, align 8
  %68 = load ptr, ptr %10, align 8
  %69 = load ptr, ptr %18, align 8
  %70 = getelementptr inbounds nuw %struct.pref_module, ptr %69, i32 0, i32 6
  store ptr %68, ptr %70, align 8
  %71 = load ptr, ptr %18, align 8
  %72 = getelementptr inbounds nuw %struct.pref_module, ptr %71, i32 0, i32 7
  store ptr null, ptr %72, align 8
  %73 = load ptr, ptr %18, align 8
  %74 = getelementptr inbounds nuw %struct.pref_module, ptr %73, i32 0, i32 8
  store i32 0, ptr %74, align 8
  %75 = load ptr, ptr %18, align 8
  %76 = getelementptr inbounds nuw %struct.pref_module, ptr %75, i32 0, i32 9
  store i32 0, ptr %76, align 4
  %77 = load ptr, ptr %18, align 8
  %78 = getelementptr inbounds nuw %struct.pref_module, ptr %77, i32 0, i32 10
  store i8 0, ptr %78, align 8
  %79 = load i8, ptr %17, align 1, !range !6, !noundef !7
  %80 = trunc i8 %79 to i1
  %81 = load ptr, ptr %18, align 8
  %82 = getelementptr inbounds nuw %struct.pref_module, ptr %81, i32 0, i32 11
  %83 = zext i1 %80 to i8
  store i8 %83, ptr %82, align 1
  %84 = load ptr, ptr %18, align 8
  %85 = getelementptr inbounds nuw %struct.pref_module, ptr %84, i32 0, i32 12
  store i32 1, ptr %85, align 4
  %86 = load ptr, ptr %11, align 8
  %87 = icmp ne ptr %86, null
  br i1 %87, label %88, label %105

88:                                               ; preds = %48
  %89 = load ptr, ptr %11, align 8
  %90 = call zeroext i8 @module_check_valid_name(ptr noundef %89, i1 noundef zeroext false)
  %91 = zext i8 %90 to i32
  %92 = icmp ne i32 %91, 0
  br i1 %92, label %93, label %95

93:                                               ; preds = %88
  %94 = load ptr, ptr %11, align 8
  call void (ptr, i32, ptr, i64, ptr, ptr, ...) @ws_log_fatal_full(ptr noundef @.str, i32 noundef 7, ptr noundef @.str.1, i64 noundef 536, ptr noundef @__func__.prefs_register_module_or_subtree, ptr noundef @.str.92, ptr noundef %94) #18
  unreachable

95:                                               ; preds = %88
  %96 = load ptr, ptr %11, align 8
  %97 = call ptr @prefs_find_module(ptr noundef %96)
  %98 = icmp ne ptr %97, null
  br i1 %98, label %99, label %101

99:                                               ; preds = %95
  %100 = load ptr, ptr %11, align 8
  call void (ptr, i32, ptr, i64, ptr, ptr, ...) @ws_log_fatal_full(ptr noundef @.str, i32 noundef 7, ptr noundef @.str.1, i64 noundef 552, ptr noundef @__func__.prefs_register_module_or_subtree, ptr noundef @.str.93, ptr noundef %100) #18
  unreachable

101:                                              ; preds = %95
  %102 = load ptr, ptr @prefs_modules, align 8
  %103 = load ptr, ptr %11, align 8
  %104 = load ptr, ptr %18, align 8
  call void @wmem_tree_insert_string(ptr noundef %102, ptr noundef %103, ptr noundef %104, i32 noundef 1)
  br label %110

105:                                              ; preds = %48
  %106 = load i8, ptr %15, align 1, !range !6, !noundef !7
  %107 = trunc i8 %106 to i1
  br i1 %107, label %109, label %108

108:                                              ; preds = %105
  call void (ptr, i32, ptr, i64, ptr, ptr, ...) @ws_log_fatal_full(ptr noundef @.str, i32 noundef 7, ptr noundef @.str.1, i64 noundef 564, ptr noundef @__func__.prefs_register_module_or_subtree, ptr noundef @.str.94) #18
  unreachable

109:                                              ; preds = %105
  br label %110

110:                                              ; preds = %109, %101
  %111 = load ptr, ptr %10, align 8
  %112 = icmp eq ptr %111, null
  br i1 %112, label %113, label %117

113:                                              ; preds = %110
  %114 = load ptr, ptr @prefs_top_level_modules, align 8
  %115 = load ptr, ptr %12, align 8
  %116 = load ptr, ptr %18, align 8
  call void @wmem_tree_insert_string(ptr noundef %114, ptr noundef %115, ptr noundef %116, i32 noundef 1)
  br label %133

117:                                              ; preds = %110
  %118 = load ptr, ptr %10, align 8
  %119 = getelementptr inbounds nuw %struct.pref_module, ptr %118, i32 0, i32 7
  %120 = load ptr, ptr %119, align 8
  %121 = icmp eq ptr %120, null
  br i1 %121, label %122, label %127

122:                                              ; preds = %117
  %123 = call ptr @wmem_epan_scope()
  %124 = call noalias ptr @wmem_tree_new(ptr noundef %123)
  %125 = load ptr, ptr %10, align 8
  %126 = getelementptr inbounds nuw %struct.pref_module, ptr %125, i32 0, i32 7
  store ptr %124, ptr %126, align 8
  br label %127

127:                                              ; preds = %122, %117
  %128 = load ptr, ptr %10, align 8
  %129 = getelementptr inbounds nuw %struct.pref_module, ptr %128, i32 0, i32 7
  %130 = load ptr, ptr %129, align 8
  %131 = load ptr, ptr %12, align 8
  %132 = load ptr, ptr %18, align 8
  call void @wmem_tree_insert_string(ptr noundef %130, ptr noundef %131, ptr noundef %132, i32 noundef 1)
  br label %133

133:                                              ; preds = %127, %113
  %134 = load ptr, ptr %18, align 8
  store ptr %134, ptr %9, align 8
  store i32 1, ptr %19, align 4
  br label %135

135:                                              ; preds = %133, %46
  call void @llvm.lifetime.end.p0(i64 8, ptr %18) #17
  %136 = load ptr, ptr %9, align 8
  ret ptr %136
}