; Function Attrs: null_pointer_is_valid sspstrong uwtable
define internal fastcc ptr @prefs_register_module_or_subtree(ptr noundef %0, ptr noundef %1, ptr noundef %2, ptr noundef %3, ptr noundef %4, i1 noundef zeroext %5, ptr noundef %6, i1 noundef zeroext %7) unnamed_addr #1 {
  %.not.i = icmp eq ptr %0, null
  %9 = getelementptr inbounds nuw i8, ptr %0, i64 56
  %.in.i = select i1 %.not.i, ptr @prefs_top_level_modules, ptr %9
  %10 = load ptr, ptr %.in.i, align 8
  %11 = tail call ptr @wmem_tree_lookup_string(ptr noundef %10, ptr noundef %2, i32 noundef 1)
  %.not = icmp eq ptr %11, null
  br i1 %.not, label %21, label %12

12:                                               ; preds = %8
  store ptr %1, ptr %11, align 8
  %13 = getelementptr inbounds nuw i8, ptr %11, i64 32
  store ptr %6, ptr %13, align 8
  %14 = getelementptr inbounds nuw i8, ptr %11, i64 16
  store ptr %3, ptr %14, align 8
  %15 = getelementptr inbounds nuw i8, ptr %11, i64 24
  store ptr %4, ptr %15, align 8
  %16 = load ptr, ptr @prefs_modules, align 8
  %17 = tail call ptr @wmem_tree_lookup_string(ptr noundef %16, ptr noundef %1, i32 noundef 1)
  %18 = icmp eq ptr %17, null
  br i1 %18, label %19, label %56

19:                                               ; preds = %12
  %20 = load ptr, ptr @prefs_modules, align 8
  tail call void @wmem_tree_insert_string(ptr noundef %20, ptr noundef %1, ptr noundef nonnull %11, i32 noundef 1)
  br label %56

21:                                               ; preds = %8
  %22 = zext i1 %7 to i8
  %23 = tail call ptr @wmem_epan_scope()
  %24 = tail call noalias dereferenceable_or_null(80) ptr @wmem_alloc(ptr noundef %23, i64 noundef 80) #27
  store ptr %1, ptr %24, align 8
  %25 = getelementptr inbounds nuw i8, ptr %24, i64 8
  store ptr %2, ptr %25, align 8
  %26 = getelementptr inbounds nuw i8, ptr %24, i64 16
  store ptr %3, ptr %26, align 8
  %27 = getelementptr inbounds nuw i8, ptr %24, i64 24
  store ptr %4, ptr %27, align 8
  %28 = getelementptr inbounds nuw i8, ptr %24, i64 32
  store ptr %6, ptr %28, align 8
  %29 = getelementptr inbounds nuw i8, ptr %24, i64 40
  store ptr null, ptr %29, align 8
  %30 = getelementptr inbounds nuw i8, ptr %24, i64 48
  store ptr %0, ptr %30, align 8
  %31 = getelementptr inbounds nuw i8, ptr %24, i64 56
  %32 = getelementptr inbounds nuw i8, ptr %24, i64 73
  tail call void @llvm.memset.p0.i64(ptr noundef nonnull align 8 dereferenceable(17) %31, i8 0, i64 17, i1 false)
  store i8 %22, ptr %32, align 1
  %33 = getelementptr inbounds nuw i8, ptr %24, i64 76
  store i32 1, ptr %33, align 4
  %.not54 = icmp eq ptr %1, null
  br i1 %.not54, label %43, label %34

34:                                               ; preds = %21
  %35 = tail call zeroext i8 @module_check_valid_name(ptr noundef nonnull %1, i1 noundef zeroext false)
  %.not55 = icmp eq i8 %35, 0
  br i1 %.not55, label %37, label %36

36:                                               ; preds = %34
  tail call void (ptr, i32, ptr, i64, ptr, ptr, ...) @ws_log_fatal_full(ptr noundef nonnull @.str, i32 noundef 7, ptr noundef nonnull @.str.1, i64 noundef 536, ptr noundef nonnull @__func__.prefs_register_module_or_subtree, ptr noundef nonnull @.str.92, ptr noundef nonnull %1) #26
  unreachable

37:                                               ; preds = %34
  %38 = load ptr, ptr @prefs_modules, align 8
  %39 = tail call ptr @wmem_tree_lookup_string(ptr noundef %38, ptr noundef nonnull %1, i32 noundef 1)
  %.not56 = icmp eq ptr %39, null
  br i1 %.not56, label %41, label %40

40:                                               ; preds = %37
  tail call void (ptr, i32, ptr, i64, ptr, ptr, ...) @ws_log_fatal_full(ptr noundef nonnull @.str, i32 noundef 7, ptr noundef nonnull @.str.1, i64 noundef 552, ptr noundef nonnull @__func__.prefs_register_module_or_subtree, ptr noundef nonnull @.str.93, ptr noundef nonnull %1) #26
  unreachable

41:                                               ; preds = %37
  %42 = load ptr, ptr @prefs_modules, align 8
  tail call void @wmem_tree_insert_string(ptr noundef %42, ptr noundef nonnull %1, ptr noundef %24, i32 noundef 1)
  br label %45

43:                                               ; preds = %21
  br i1 %5, label %45, label %44

44:                                               ; preds = %43
  tail call void (ptr, i32, ptr, i64, ptr, ptr, ...) @ws_log_fatal_full(ptr noundef nonnull @.str, i32 noundef 7, ptr noundef nonnull @.str.1, i64 noundef 564, ptr noundef nonnull @__func__.prefs_register_module_or_subtree, ptr noundef nonnull @.str.94) #26
  unreachable

45:                                               ; preds = %43, %41
  br i1 %.not.i, label %46, label %48

46:                                               ; preds = %45
  %47 = load ptr, ptr @prefs_top_level_modules, align 8
  tail call void @wmem_tree_insert_string(ptr noundef %47, ptr noundef %2, ptr noundef %24, i32 noundef 1)
  br label %56

48:                                               ; preds = %45
  %49 = load ptr, ptr %9, align 8
  %50 = icmp eq ptr %49, null
  br i1 %50, label %51, label %54

51:                                               ; preds = %48
  %52 = tail call ptr @wmem_epan_scope()
  %53 = tail call noalias ptr @wmem_tree_new(ptr noundef %52)
  store ptr %53, ptr %9, align 8
  br label %54

54:                                               ; preds = %51, %48
  %55 = phi ptr [ %53, %51 ], [ %49, %48 ]
  tail call void @wmem_tree_insert_string(ptr noundef %55, ptr noundef %2, ptr noundef %24, i32 noundef 1)
  br label %56

56:                                               ; preds = %46, %54, %12, %19
  %.0 = phi ptr [ %11, %19 ], [ %11, %12 ], [ %24, %54 ], [ %24, %46 ]
  ret ptr %.0
}